target datalayout = "e-m:e-p270:32:32-p271:32:32-p272:64:64-i64:64-i128:128-f80:128-n8:16:32:64-S128"
target triple = "x86_64-pc-linux-gnu"

%struct.Codebook = type { i32, i32, ptr, float, float, i8, i8, i8, i8, i32, ptr, ptr, [1024 x i16], ptr, ptr, i32 }

; Function Attrs: nounwind uwtable
define i32 @codebook_decode(ptr noundef %0, ptr noundef %1, ptr noundef %2, i32 noundef %3) #0 {
  %5 = alloca i32, align 4
  %6 = alloca ptr, align 8
  %7 = alloca ptr, align 8
  %8 = alloca ptr, align 8
  %9 = alloca i32, align 4
  %10 = alloca i32, align 4
  %11 = alloca i32, align 4
  %12 = alloca i32, align 4
  %13 = alloca float, align 4
  %14 = alloca float, align 4
  %15 = alloca float, align 4
  store ptr %0, ptr %6, align 8, !tbaa !3
  store ptr %1, ptr %7, align 8, !tbaa !18
  store ptr %2, ptr %8, align 8, !tbaa !58
  store i32 %3, ptr %9, align 4, !tbaa !8
  call void @llvm.lifetime.start.p0(i64 4, ptr %10) #11
  call void @llvm.lifetime.start.p0(i64 4, ptr %11) #11
  %16 = load ptr, ptr %6, align 8, !tbaa !3
  %17 = load ptr, ptr %7, align 8, !tbaa !18
  %18 = call i32 @codebook_decode_start(ptr noundef %16, ptr noundef %17)
  store i32 %18, ptr %11, align 4, !tbaa !8
  %19 = load i32, ptr %11, align 4, !tbaa !8
  %20 = icmp slt i32 %19, 0
  br i1 %20, label %21, label %22

21:                                               ; preds = %4
  store i32 0, ptr %5, align 4
  store i32 1, ptr %12, align 4
  br label %103

22:                                               ; preds = %4
  %23 = load i32, ptr %9, align 4, !tbaa !8
  %24 = load ptr, ptr %7, align 8, !tbaa !18
  %25 = getelementptr inbounds nuw %struct.Codebook, ptr %24, i32 0, i32 0
  %26 = load i32, ptr %25, align 8, !tbaa !101
  %27 = icmp sgt i32 %23, %26
  br i1 %27, label %28, label %32

28:                                               ; preds = %22
  %29 = load ptr, ptr %7, align 8, !tbaa !18
  %30 = getelementptr inbounds nuw %struct.Codebook, ptr %29, i32 0, i32 0
  %31 = load i32, ptr %30, align 8, !tbaa !101
  store i32 %31, ptr %9, align 4, !tbaa !8
  br label %32

32:                                               ; preds = %28, %22
  %33 = load ptr, ptr %7, align 8, !tbaa !18
  %34 = getelementptr inbounds nuw %struct.Codebook, ptr %33, i32 0, i32 0
  %35 = load i32, ptr %34, align 8, !tbaa !101
  %36 = load i32, ptr %11, align 4, !tbaa !8
  %37 = mul nsw i32 %36, %35
  store i32 %37, ptr %11, align 4, !tbaa !8
  %38 = load ptr, ptr %7, align 8, !tbaa !18
  %39 = getelementptr inbounds nuw %struct.Codebook, ptr %38, i32 0, i32 7
  %40 = load i8, ptr %39, align 2, !tbaa !102
  %41 = icmp ne i8 %40, 0
  br i1 %41, label %42, label %75

42:                                               ; preds = %32
  call void @llvm.lifetime.start.p0(i64 4, ptr %13) #11
  store float 0.000000e+00, ptr %13, align 4, !tbaa !28
  store i32 0, ptr %10, align 4, !tbaa !8
  br label %43

43:                                               ; preds = %71, %42
  %44 = load i32, ptr %10, align 4, !tbaa !8
  %45 = load i32, ptr %9, align 4, !tbaa !8
  %46 = icmp slt i32 %44, %45
  br i1 %46, label %47, label %74

47:                                               ; preds = %43
  call void @llvm.lifetime.start.p0(i64 4, ptr %14) #11
  %48 = load ptr, ptr %7, align 8, !tbaa !18
  %49 = getelementptr inbounds nuw %struct.Codebook, ptr %48, i32 0, i32 10
  %50 = load ptr, ptr %49, align 8, !tbaa !103
  %51 = load i32, ptr %11, align 4, !tbaa !8
  %52 = load i32, ptr %10, align 4, !tbaa !8
  %53 = add nsw i32 %51, %52
  %54 = sext i32 %53 to i64
  %55 = getelementptr inbounds float, ptr %50, i64 %54
  %56 = load float, ptr %55, align 4, !tbaa !28
  %57 = load float, ptr %13, align 4, !tbaa !28
  %58 = fadd float %56, %57
  store float %58, ptr %14, align 4, !tbaa !28
  %59 = load float, ptr %14, align 4, !tbaa !28
  %60 = load ptr, ptr %8, align 8, !tbaa !58
  %61 = load i32, ptr %10, align 4, !tbaa !8
  %62 = sext i32 %61 to i64
  %63 = getelementptr inbounds float, ptr %60, i64 %62
  %64 = load float, ptr %63, align 4, !tbaa !28
  %65 = fadd float %64, %59
  store float %65, ptr %63, align 4, !tbaa !28
  %66 = load float, ptr %14, align 4, !tbaa !28
  %67 = load ptr, ptr %7, align 8, !tbaa !18
  %68 = getelementptr inbounds nuw %struct.Codebook, ptr %67, i32 0, i32 3
  %69 = load float, ptr %68, align 8, !tbaa !104
  %70 = fadd float %66, %69
  store float %70, ptr %13, align 4, !tbaa !28
  call void @llvm.lifetime.end.p0(i64 4, ptr %14) #11
  br label %71

71:                                               ; preds = %47
  %72 = load i32, ptr %10, align 4, !tbaa !8
  %73 = add nsw i32 %72, 1
  store i32 %73, ptr %10, align 4, !tbaa !8
  br label %43, !llvm.loop !105

74:                                               ; preds = %43
  call void @llvm.lifetime.end.p0(i64 4, ptr %13) #11
  br label %102

75:                                               ; preds = %32
  call void @llvm.lifetime.start.p0(i64 4, ptr %15) #11
  store float 0.000000e+00, ptr %15, align 4, !tbaa !28
  store i32 0, ptr %10, align 4, !tbaa !8
  br label %76

76:                                               ; preds = %98, %75
  %77 = load i32, ptr %10, align 4, !tbaa !8
  %78 = load i32, ptr %9, align 4, !tbaa !8
  %79 = icmp slt i32 %77, %78
  br i1 %79, label %80, label %101

80:                                               ; preds = %76
  %81 = load ptr, ptr %7, align 8, !tbaa !18
  %82 = getelementptr inbounds nuw %struct.Codebook, ptr %81, i32 0, i32 10
  %83 = load ptr, ptr %82, align 8, !tbaa !103
  %84 = load i32, ptr %11, align 4, !tbaa !8
  %85 = load i32, ptr %10, align 4, !tbaa !8
  %86 = add nsw i32 %84, %85
  %87 = sext i32 %86 to i64
  %88 = getelementptr inbounds float, ptr %83, i64 %87
  %89 = load float, ptr %88, align 4, !tbaa !28
  %90 = load float, ptr %15, align 4, !tbaa !28
  %91 = fadd float %89, %90
  %92 = load ptr, ptr %8, align 8, !tbaa !58
  %93 = load i32, ptr %10, align 4, !tbaa !8
  %94 = sext i32 %93 to i64
  %95 = getelementptr inbounds float, ptr %92, i64 %94
  %96 = load float, ptr %95, align 4, !tbaa !28
  %97 = fadd float %96, %91
  store float %97, ptr %95, align 4, !tbaa !28
  br label %98

98:                                               ; preds = %80
  %99 = load i32, ptr %10, align 4, !tbaa !8
  %100 = add nsw i32 %99, 1
  store i32 %100, ptr %10, align 4, !tbaa !8
  br label %76, !llvm.loop !106

101:                                              ; preds = %76
  call void @llvm.lifetime.end.p0(i64 4, ptr %15) #11
  br label %102

102:                                              ; preds = %101, %74
  store i32 1, ptr %5, align 4
  store i32 1, ptr %12, align 4
  br label %103

103:                                              ; preds = %102, %21
  call void @llvm.lifetime.end.p0(i64 4, ptr %11) #11
  call void @llvm.lifetime.end.p0(i64 4, ptr %10) #11
  %104 = load i32, ptr %5, align 4
  ret i32 %104
}