; Function Attrs: nofree nounwind uwtable
define range(i32 0, 2) i32 @codebook_decode(ptr noundef captures(none) %0, ptr noundef readonly captures(none) %1, ptr noundef captures(none) %2, i32 noundef %3) local_unnamed_addr #17 {
  %5 = tail call i32 @codebook_decode_start(ptr noundef %0, ptr noundef %1)
  %6 = icmp slt i32 %5, 0
  br i1 %6, label %.loopexit, label %7

7:                                                ; preds = %4
  %8 = load i32, ptr %1, align 8, !tbaa !91
  %spec.select = tail call i32 @llvm.smin.i32(i32 %3, i32 %8)
  %9 = mul nsw i32 %8, %5
  %10 = getelementptr inbounds nuw i8, ptr %1, i64 26
  %11 = load i8, ptr %10, align 2, !tbaa !92
  %.not = icmp eq i8 %11, 0
  %12 = icmp sgt i32 %spec.select, 0
  br i1 %.not, label %.preheader, label %.preheader36

.preheader36:                                     ; preds = %7
  br i1 %12, label %.lr.ph, label %.loopexit

.lr.ph:                                           ; preds = %.preheader36
  %13 = getelementptr inbounds nuw i8, ptr %1, i64 32
  %14 = load ptr, ptr %13, align 8, !tbaa !93
  %15 = getelementptr inbounds nuw i8, ptr %1, i64 16
  %16 = sext i32 %9 to i64
  %wide.trip.count = zext nneg i32 %spec.select to i64
  %invariant.gep = getelementptr float, ptr %14, i64 %16
  br label %20

.preheader:                                       ; preds = %7
  br i1 %12, label %.lr.ph41, label %.loopexit

.lr.ph41:                                         ; preds = %.preheader
  %17 = getelementptr inbounds nuw i8, ptr %1, i64 32
  %18 = load ptr, ptr %17, align 8, !tbaa !93
  %19 = sext i32 %9 to i64
  %wide.trip.count47 = zext nneg i32 %spec.select to i64
  %invariant.gep50 = getelementptr float, ptr %18, i64 %19
  br label %28

20:                                               ; preds = %.lr.ph, %20
  %indvars.iv = phi i64 [ 0, %.lr.ph ], [ %indvars.iv.next, %20 ]
  %.03139 = phi float [ 0.000000e+00, %.lr.ph ], [ %27, %20 ]
  %gep = getelementptr float, ptr %invariant.gep, i64 %indvars.iv
  %21 = load float, ptr %gep, align 4, !tbaa !48
  %22 = fadd float %.03139, %21
  %23 = getelementptr inbounds nuw float, ptr %2, i64 %indvars.iv
  %24 = load float, ptr %23, align 4, !tbaa !48
  %25 = fadd float %24, %22
  store float %25, ptr %23, align 4, !tbaa !48
  %26 = load float, ptr %15, align 8, !tbaa !94
  %27 = fadd float %22, %26
  %indvars.iv.next = add nuw nsw i64 %indvars.iv, 1
  %exitcond.not = icmp eq i64 %indvars.iv.next, %wide.trip.count
  br i1 %exitcond.not, label %.loopexit, label %20, !llvm.loop !95

28:                                               ; preds = %.lr.ph41, %28
  %indvars.iv44 = phi i64 [ 0, %.lr.ph41 ], [ %indvars.iv.next45, %28 ]
  %gep51 = getelementptr float, ptr %invariant.gep50, i64 %indvars.iv44
  %29 = load float, ptr %gep51, align 4, !tbaa !48
  %30 = fadd float %29, 0.000000e+00
  %31 = getelementptr inbounds nuw float, ptr %2, i64 %indvars.iv44
  %32 = load float, ptr %31, align 4, !tbaa !48
  %33 = fadd float %32, %30
  store float %33, ptr %31, align 4, !tbaa !48
  %indvars.iv.next45 = add nuw nsw i64 %indvars.iv44, 1
  %exitcond48.not = icmp eq i64 %indvars.iv.next45, %wide.trip.count47
  br i1 %exitcond48.not, label %.loopexit, label %28, !llvm.loop !96

.loopexit:                                        ; preds = %20, %28, %.preheader36, %.preheader, %4
  %.0 = phi i32 [ 0, %4 ], [ 1, %.preheader ], [ 1, %.preheader36 ], [ 1, %28 ], [ 1, %20 ]
  ret i32 %.0
}